; Function Attrs: mustprogress uwtable
define void @_ZN5boost10filesystem6detail6renameERKNS0_4pathES4_PNS_6system10error_codeE(ptr noundef nonnull align 8 dereferenceable(32) %0, ptr noundef nonnull align 8 dereferenceable(32) %1, ptr noundef %2) local_unnamed_addr #5 personality ptr @__gxx_personality_v0 {
  %4 = load ptr, ptr %0, align 8, !tbaa !13
  %5 = load ptr, ptr %1, align 8, !tbaa !13
  %6 = tail call i32 @rename(ptr noundef %4, ptr noundef %5) #27
  %7 = icmp eq i32 %6, 0
  br i1 %7, label %.thread, label %8

8:                                                ; preds = %3
  %9 = tail call ptr @__errno_location() #30
  %10 = load i32, ptr %9, align 4, !tbaa !19
  %.not.i.not = icmp eq i32 %10, 0
  br i1 %.not.i.not, label %.thread, label %12, !prof !157

.thread:                                          ; preds = %3, %8
  %.not9.i = icmp eq ptr %2, null
  br i1 %.not9.i, label %_ZN5boost10filesystem5errorEiRKNS0_4pathES3_PNS_6system10error_codeEPKc.exit, label %11

11:                                               ; preds = %.thread
  tail call void @llvm.memset.p0.i64(ptr noundef nonnull align 8 dereferenceable(24) %2, i8 0, i64 24, i1 false)
  br label %_ZN5boost10filesystem5errorEiRKNS0_4pathES3_PNS_6system10error_codeEPKc.exit

12:                                               ; preds = %8
  tail call void @_ZN5boost10filesystem10emit_errorEiRKNS0_4pathES3_PNS_6system10error_codeEPKc(i32 noundef %10, ptr noundef nonnull align 8 dereferenceable(32) %0, ptr noundef nonnull align 8 dereferenceable(32) %1, ptr noundef %2, ptr noundef nonnull @.str.21)
  br label %_ZN5boost10filesystem5errorEiRKNS0_4pathES3_PNS_6system10error_codeEPKc.exit

_ZN5boost10filesystem5errorEiRKNS0_4pathES3_PNS_6system10error_codeEPKc.exit: ; preds = %.thread, %11, %12
  ret void
}